target datalayout = "e-m:e-p270:32:32-p271:32:32-p272:64:64-i64:64-i128:128-f80:128-n8:16:32:64-S128"
target triple = "x86_64-pc-linux-gnu"

%"class.icu_77::UnicodeString" = type { %"class.icu_77::Replaceable", %"union.icu_77::UnicodeString::StackBufferOrFields" }
%"class.icu_77::Replaceable" = type { %"class.icu_77::UObject" }
%"class.icu_77::UObject" = type { ptr }
%"union.icu_77::UnicodeString::StackBufferOrFields" = type { %struct.anon.0, [32 x i8] }
%struct.anon.0 = type { i16, i32, i32, ptr }

; Function Attrs: inlinehint mustprogress nounwind uwtable
define linkonce_odr noundef i32 @_ZNK6icu_7713UnicodeString14getShortLengthEv(ptr noundef nonnull align 8 dereferenceable(64) %0) #2 comdat align 2 {
  %2 = alloca ptr, align 8
  store ptr %0, ptr %2, align 8, !tbaa !33
  %3 = load ptr, ptr %2, align 8
  %4 = getelementptr inbounds nuw %"class.icu_77::UnicodeString", ptr %3, i32 0, i32 1
  %5 = getelementptr inbounds nuw %struct.anon.0, ptr %4, i32 0, i32 0
  %6 = load i16, ptr %5, align 8, !tbaa !37
  %7 = sext i16 %6 to i32
  %8 = ashr i32 %7, 5
  ret i32 %8
}

; Function Attrs: inlinehint mustprogress nounwind uwtable
define linkonce_odr noundef signext i8 @_ZNK6icu_7713UnicodeString14hasShortLengthEv(ptr noundef nonnull align 8 dereferenceable(64) %0) #2 comdat align 2 {
  %2 = alloca ptr, align 8
  store ptr %0, ptr %2, align 8, !tbaa !33
  %3 = load ptr, ptr %2, align 8
  %4 = getelementptr inbounds nuw %"class.icu_77::UnicodeString", ptr %3, i32 0, i32 1
  %5 = getelementptr inbounds nuw %struct.anon.0, ptr %4, i32 0, i32 0
  %6 = load i16, ptr %5, align 8, !tbaa !37
  %7 = sext i16 %6 to i32
  %8 = icmp sge i32 %7, 0
  %9 = zext i1 %8 to i8
  ret i8 %9
}

; Function Attrs: inlinehint mustprogress uwtable
define linkonce_odr noundef i32 @_ZNK6icu_7713UnicodeString6lengthEv(ptr noundef nonnull align 8 dereferenceable(64) %0) #3 comdat align 2 {
  %2 = alloca ptr, align 8
  store ptr %0, ptr %2, align 8, !tbaa !33
  %3 = load ptr, ptr %2, align 8
  %4 = call noundef signext i8 @_ZNK6icu_7713UnicodeString14hasShortLengthEv(ptr noundef nonnull align 8 dereferenceable(64) %3)
  %5 = icmp ne i8 %4, 0
  br i1 %5, label %6, label %8

6:                                                ; preds = %1
  %7 = call noundef i32 @_ZNK6icu_7713UnicodeString14getShortLengthEv(ptr noundef nonnull align 8 dereferenceable(64) %3)
  br label %12

8:                                                ; preds = %1
  %9 = getelementptr inbounds nuw %"class.icu_77::UnicodeString", ptr %3, i32 0, i32 1
  %10 = getelementptr inbounds nuw %struct.anon.0, ptr %9, i32 0, i32 1
  %11 = load i32, ptr %10, align 4, !tbaa !37
  br label %12

12:                                               ; preds = %8, %6
  %13 = phi i32 [ %7, %6 ], [ %11, %8 ]
  ret i32 %13
}

; Function Attrs: inlinehint mustprogress uwtable
define linkonce_odr noundef nonnull align 8 dereferenceable(64) ptr @_ZN6icu_7713UnicodeString6appendEDs(ptr noundef nonnull align 8 dereferenceable(64) %0, i16 noundef zeroext %1) #3 comdat align 2 {
  %3 = alloca ptr, align 8
  %4 = alloca i16, align 2
  store ptr %0, ptr %3, align 8, !tbaa !33
  store i16 %1, ptr %4, align 2, !tbaa !35
  %5 = load ptr, ptr %3, align 8
  %6 = call noundef nonnull align 8 dereferenceable(64) ptr @_ZN6icu_7713UnicodeString8doAppendEPKDsii(ptr noundef nonnull align 8 dereferenceable(64) %5, ptr noundef %4, i32 noundef 0, i32 noundef 1)
  ret ptr %6
}

; Function Attrs: inlinehint mustprogress uwtable
define linkonce_odr noundef nonnull align 8 dereferenceable(64) ptr @_ZN6icu_7713UnicodeString5setToEDs(ptr noundef nonnull align 8 dereferenceable(64) %0, i16 noundef zeroext %1) #3 comdat align 2 {
  %3 = alloca ptr, align 8
  %4 = alloca i16, align 2
  store ptr %0, ptr %3, align 8, !tbaa !33
  store i16 %1, ptr %4, align 2, !tbaa !35
  %5 = load ptr, ptr %3, align 8
  call void @_ZN6icu_7713UnicodeString7unBogusEv(ptr noundef nonnull align 8 dereferenceable(64) %5)
  %6 = call noundef i32 @_ZNK6icu_7713UnicodeString6lengthEv(ptr noundef nonnull align 8 dereferenceable(64) %5)
  %7 = call noundef nonnull align 8 dereferenceable(64) ptr @_ZN6icu_7713UnicodeString9doReplaceEiiPKDsii(ptr noundef nonnull align 8 dereferenceable(64) %5, i32 noundef 0, i32 noundef %6, ptr noundef %4, i32 noundef 0, i32 noundef 1)
  ret ptr %7
}

; Function Attrs: mustprogress uwtable
define noundef nonnull align 8 dereferenceable(64) ptr @_ZN6icu_7714TimeZoneFormat27formatOffsetWithAsciiDigitsEiDsNS0_12OffsetFieldsES1_RNS_13UnicodeStringE(i32 noundef %0, i16 noundef zeroext %1, i32 noundef %2, i32 noundef %3, ptr noundef nonnull align 8 dereferenceable(64) %4) #1 align 2 {
  %6 = alloca i32, align 4
  %7 = alloca i16, align 2
  %8 = alloca i32, align 4
  %9 = alloca i32, align 4
  %10 = alloca ptr, align 8
  %11 = alloca i16, align 2
  %12 = alloca [3 x i32], align 4
  %13 = alloca i32, align 4
  %14 = alloca i32, align 4
  store i32 %0, ptr %6, align 4, !tbaa !14
  store i16 %1, ptr %7, align 2, !tbaa !35
  store i32 %2, ptr %8, align 4, !tbaa !89
  store i32 %3, ptr %9, align 4, !tbaa !89
  store ptr %4, ptr %10, align 8, !tbaa !33
  call void @llvm.lifetime.start.p0(i64 2, ptr %11) #15
  store i16 43, ptr %11, align 2, !tbaa !35
  %15 = load i32, ptr %6, align 4, !tbaa !14
  %16 = icmp slt i32 %15, 0
  br i1 %16, label %17, label %20

17:                                               ; preds = %5
  store i16 45, ptr %11, align 2, !tbaa !35
  %18 = load i32, ptr %6, align 4, !tbaa !14
  %19 = sub nsw i32 0, %18
  store i32 %19, ptr %6, align 4, !tbaa !14
  br label %20

20:                                               ; preds = %17, %5
  %21 = load ptr, ptr %10, align 8, !tbaa !33
  %22 = load i16, ptr %11, align 2, !tbaa !35
  %23 = call noundef nonnull align 8 dereferenceable(64) ptr @_ZN6icu_7713UnicodeString5setToEDs(ptr noundef nonnull align 8 dereferenceable(64) %21, i16 noundef zeroext %22)
  call void @llvm.lifetime.start.p0(i64 12, ptr %12) #15
  %24 = load i32, ptr %6, align 4, !tbaa !14
  %25 = sdiv i32 %24, 3600000
  %26 = getelementptr inbounds [3 x i32], ptr %12, i64 0, i64 0
  store i32 %25, ptr %26, align 4, !tbaa !14
  %27 = load i32, ptr %6, align 4, !tbaa !14
  %28 = srem i32 %27, 3600000
  store i32 %28, ptr %6, align 4, !tbaa !14
  %29 = load i32, ptr %6, align 4, !tbaa !14
  %30 = sdiv i32 %29, 60000
  %31 = getelementptr inbounds [3 x i32], ptr %12, i64 0, i64 1
  store i32 %30, ptr %31, align 4, !tbaa !14
  %32 = load i32, ptr %6, align 4, !tbaa !14
  %33 = srem i32 %32, 60000
  store i32 %33, ptr %6, align 4, !tbaa !14
  %34 = load i32, ptr %6, align 4, !tbaa !14
  %35 = sdiv i32 %34, 1000
  %36 = getelementptr inbounds [3 x i32], ptr %12, i64 0, i64 2
  store i32 %35, ptr %36, align 4, !tbaa !14
  call void @llvm.lifetime.start.p0(i64 4, ptr %13) #15
  %37 = load i32, ptr %9, align 4, !tbaa !89
  store i32 %37, ptr %13, align 4, !tbaa !14
  br label %38

38:                                               ; preds = %49, %20
  %39 = load i32, ptr %13, align 4, !tbaa !14
  %40 = load i32, ptr %8, align 4, !tbaa !89
  %41 = icmp sgt i32 %39, %40
  br i1 %41, label %42, label %52

42:                                               ; preds = %38
  %43 = load i32, ptr %13, align 4, !tbaa !14
  %44 = sext i32 %43 to i64
  %45 = getelementptr inbounds [3 x i32], ptr %12, i64 0, i64 %44
  %46 = load i32, ptr %45, align 4, !tbaa !14
  %47 = icmp ne i32 %46, 0
  br i1 %47, label %48, label %49

48:                                               ; preds = %42
  br label %52

49:                                               ; preds = %42
  %50 = load i32, ptr %13, align 4, !tbaa !14
  %51 = add nsw i32 %50, -1
  store i32 %51, ptr %13, align 4, !tbaa !14
  br label %38, !llvm.loop !163

52:                                               ; preds = %48, %38
  call void @llvm.lifetime.start.p0(i64 4, ptr %14) #15
  store i32 0, ptr %14, align 4, !tbaa !14
  br label %53

53:                                               ; preds = %87, %52
  %54 = load i32, ptr %14, align 4, !tbaa !14
  %55 = load i32, ptr %13, align 4, !tbaa !14
  %56 = icmp sle i32 %54, %55
  br i1 %56, label %58, label %57

57:                                               ; preds = %53
  call void @llvm.lifetime.end.p0(i64 4, ptr %14) #15
  br label %90

58:                                               ; preds = %53
  %59 = load i16, ptr %7, align 2, !tbaa !35
  %60 = icmp ne i16 %59, 0
  br i1 %60, label %61, label %68

61:                                               ; preds = %58
  %62 = load i32, ptr %14, align 4, !tbaa !14
  %63 = icmp ne i32 %62, 0
  br i1 %63, label %64, label %68

64:                                               ; preds = %61
  %65 = load ptr, ptr %10, align 8, !tbaa !33
  %66 = load i16, ptr %7, align 2, !tbaa !35
  %67 = call noundef nonnull align 8 dereferenceable(64) ptr @_ZN6icu_7713UnicodeString6appendEDs(ptr noundef nonnull align 8 dereferenceable(64) %65, i16 noundef zeroext %66)
  br label %68

68:                                               ; preds = %64, %61, %58
  %69 = load ptr, ptr %10, align 8, !tbaa !33
  %70 = load i32, ptr %14, align 4, !tbaa !14
  %71 = sext i32 %70 to i64
  %72 = getelementptr inbounds [3 x i32], ptr %12, i64 0, i64 %71
  %73 = load i32, ptr %72, align 4, !tbaa !14
  %74 = sdiv i32 %73, 10
  %75 = add nsw i32 48, %74
  %76 = trunc i32 %75 to i16
  %77 = call noundef nonnull align 8 dereferenceable(64) ptr @_ZN6icu_7713UnicodeString6appendEDs(ptr noundef nonnull align 8 dereferenceable(64) %69, i16 noundef zeroext %76)
  %78 = load ptr, ptr %10, align 8, !tbaa !33
  %79 = load i32, ptr %14, align 4, !tbaa !14
  %80 = sext i32 %79 to i64
  %81 = getelementptr inbounds [3 x i32], ptr %12, i64 0, i64 %80
  %82 = load i32, ptr %81, align 4, !tbaa !14
  %83 = srem i32 %82, 10
  %84 = add nsw i32 48, %83
  %85 = trunc i32 %84 to i16
  %86 = call noundef nonnull align 8 dereferenceable(64) ptr @_ZN6icu_7713UnicodeString6appendEDs(ptr noundef nonnull align 8 dereferenceable(64) %78, i16 noundef zeroext %85)
  br label %87

87:                                               ; preds = %68
  %88 = load i32, ptr %14, align 4, !tbaa !14
  %89 = add nsw i32 %88, 1
  store i32 %89, ptr %14, align 4, !tbaa !14
  br label %53, !llvm.loop !164

90:                                               ; preds = %57
  %91 = load ptr, ptr %10, align 8, !tbaa !33
  call void @llvm.lifetime.end.p0(i64 4, ptr %13) #15
  call void @llvm.lifetime.end.p0(i64 12, ptr %12) #15
  call void @llvm.lifetime.end.p0(i64 2, ptr %11) #15
  ret ptr %91
}