; Function Attrs: mustprogress uwtable
define noundef nonnull align 8 dereferenceable(64) ptr @_ZN6icu_7714TimeZoneFormat27formatOffsetWithAsciiDigitsEiDsNS0_12OffsetFieldsES1_RNS_13UnicodeStringE(i32 noundef %0, i16 noundef zeroext %1, i32 noundef %2, i32 noundef %3, ptr noundef nonnull returned align 8 dereferenceable(64) %4) local_unnamed_addr #1 align 2 {
  %6 = alloca i16, align 2
  %7 = alloca i16, align 2
  %8 = alloca i16, align 2
  %9 = alloca i16, align 2
  %10 = alloca i16, align 2
  %11 = alloca [3 x i32], align 4
  %12 = icmp slt i32 %0, 0
  br i1 %12, label %.split, label %.split29

.split29:                                         ; preds = %5
  call void @llvm.lifetime.start.p0(i64 2, ptr nonnull %10)
  store i16 43, ptr %10, align 2, !tbaa !24
  tail call void @_ZN6icu_7713UnicodeString7unBogusEv(ptr noundef nonnull align 8 dereferenceable(64) %4)
  %13 = getelementptr inbounds nuw i8, ptr %4, i64 8
  %14 = load i16, ptr %13, align 8, !tbaa !23
  %15 = icmp slt i16 %14, 0
  %16 = ashr i16 %14, 5
  %17 = sext i16 %16 to i32
  %18 = getelementptr inbounds nuw i8, ptr %4, i64 12
  %19 = load i32, ptr %18, align 4
  %20 = select i1 %15, i32 %19, i32 %17
  %21 = call noundef nonnull align 8 dereferenceable(64) ptr @_ZN6icu_7713UnicodeString9doReplaceEiiPKDsii(ptr noundef nonnull align 8 dereferenceable(64) %4, i32 noundef 0, i32 noundef %20, ptr noundef nonnull %10, i32 noundef 0, i32 noundef 1)
  call void @llvm.lifetime.end.p0(i64 2, ptr nonnull %10)
  br label %32

.split:                                           ; preds = %5
  %22 = sub nsw i32 0, %0
  call void @llvm.lifetime.start.p0(i64 2, ptr nonnull %9)
  store i16 45, ptr %9, align 2, !tbaa !24
  tail call void @_ZN6icu_7713UnicodeString7unBogusEv(ptr noundef nonnull align 8 dereferenceable(64) %4)
  %23 = getelementptr inbounds nuw i8, ptr %4, i64 8
  %24 = load i16, ptr %23, align 8, !tbaa !23
  %25 = icmp slt i16 %24, 0
  %26 = ashr i16 %24, 5
  %27 = sext i16 %26 to i32
  %28 = getelementptr inbounds nuw i8, ptr %4, i64 12
  %29 = load i32, ptr %28, align 4
  %30 = select i1 %25, i32 %29, i32 %27
  %31 = call noundef nonnull align 8 dereferenceable(64) ptr @_ZN6icu_7713UnicodeString9doReplaceEiiPKDsii(ptr noundef nonnull align 8 dereferenceable(64) %4, i32 noundef 0, i32 noundef %30, ptr noundef nonnull %9, i32 noundef 0, i32 noundef 1)
  call void @llvm.lifetime.end.p0(i64 2, ptr nonnull %9)
  br label %32

32:                                               ; preds = %.split29, %.split
  %.028 = phi i32 [ %22, %.split ], [ %0, %.split29 ]
  call void @llvm.lifetime.start.p0(i64 12, ptr nonnull %11) #22
  %33 = udiv i32 %.028, 3600000
  store i32 %33, ptr %11, align 4, !tbaa !12
  %34 = urem i32 %.028, 3600000
  %35 = udiv i32 %34, 60000
  %36 = getelementptr inbounds nuw i8, ptr %11, i64 4
  store i32 %35, ptr %36, align 4, !tbaa !12
  %37 = urem i32 %34, 60000
  %.lhs.trunc = trunc nuw i32 %37 to i16
  %38 = udiv i16 %.lhs.trunc, 1000
  %.zext = zext nneg i16 %38 to i32
  %39 = getelementptr inbounds nuw i8, ptr %11, i64 8
  store i32 %.zext, ptr %39, align 4, !tbaa !12
  %40 = icmp sgt i32 %3, %2
  br i1 %40, label %.lr.ph.preheader, label %._crit_edge

.lr.ph.preheader:                                 ; preds = %32
  %41 = sext i32 %3 to i64
  %42 = sext i32 %2 to i64
  br label %.lr.ph

.lr.ph:                                           ; preds = %.lr.ph.preheader, %45
  %indvars.iv = phi i64 [ %41, %.lr.ph.preheader ], [ %indvars.iv.next, %45 ]
  %43 = getelementptr inbounds [3 x i32], ptr %11, i64 0, i64 %indvars.iv
  %44 = load i32, ptr %43, align 4, !tbaa !12
  %.not = icmp eq i32 %44, 0
  br i1 %.not, label %45, label %._crit_edge.loopexit.split.loop.exit

45:                                               ; preds = %.lr.ph
  %indvars.iv.next = add nsw i64 %indvars.iv, -1
  %46 = icmp sgt i64 %indvars.iv.next, %42
  br i1 %46, label %.lr.ph, label %._crit_edge, !llvm.loop !103

._crit_edge.loopexit.split.loop.exit:             ; preds = %.lr.ph
  %47 = trunc nsw i64 %indvars.iv to i32
  br label %._crit_edge

._crit_edge:                                      ; preds = %45, %._crit_edge.loopexit.split.loop.exit, %32
  %.026.lcssa = phi i32 [ %3, %32 ], [ %47, %._crit_edge.loopexit.split.loop.exit ], [ %2, %45 ]
  %.not3236 = icmp slt i32 %.026.lcssa, 0
  br i1 %.not3236, label %._crit_edge40, label %.lr.ph39

.lr.ph39:                                         ; preds = %._crit_edge
  %.not41 = icmp eq i16 %1, 0
  %48 = add nuw i32 %.026.lcssa, 1
  %wide.trip.count51 = zext i32 %48 to i64
  br i1 %.not41, label %.lr.ph39.split.us, label %.lr.ph39.split

.lr.ph39.split.us:                                ; preds = %.lr.ph39, %.lr.ph39.split.us
  %indvars.iv48 = phi i64 [ %indvars.iv.next49, %.lr.ph39.split.us ], [ 0, %.lr.ph39 ]
  %49 = getelementptr inbounds nuw [3 x i32], ptr %11, i64 0, i64 %indvars.iv48
  %50 = load i32, ptr %49, align 4, !tbaa !12
  %51 = sdiv i32 %50, 10
  %52 = trunc i32 %51 to i16
  %53 = add i16 %52, 48
  call void @llvm.lifetime.start.p0(i64 2, ptr nonnull %7)
  store i16 %53, ptr %7, align 2, !tbaa !24
  %54 = call noundef nonnull align 8 dereferenceable(64) ptr @_ZN6icu_7713UnicodeString8doAppendEPKDsii(ptr noundef nonnull align 8 dereferenceable(64) %4, ptr noundef nonnull %7, i32 noundef 0, i32 noundef 1)
  call void @llvm.lifetime.end.p0(i64 2, ptr nonnull %7)
  %55 = srem i32 %50, 10
  %56 = trunc nsw i32 %55 to i16
  %57 = add nsw i16 %56, 48
  call void @llvm.lifetime.start.p0(i64 2, ptr nonnull %6)
  store i16 %57, ptr %6, align 2, !tbaa !24
  %58 = call noundef nonnull align 8 dereferenceable(64) ptr @_ZN6icu_7713UnicodeString8doAppendEPKDsii(ptr noundef nonnull align 8 dereferenceable(64) %4, ptr noundef nonnull %6, i32 noundef 0, i32 noundef 1)
  call void @llvm.lifetime.end.p0(i64 2, ptr nonnull %6)
  %indvars.iv.next49 = add nuw nsw i64 %indvars.iv48, 1
  %exitcond52.not = icmp eq i64 %indvars.iv.next49, %wide.trip.count51
  br i1 %exitcond52.not, label %._crit_edge40, label %.lr.ph39.split.us, !llvm.loop !104

._crit_edge40:                                    ; preds = %61, %.lr.ph39.split.us, %._crit_edge
  call void @llvm.lifetime.end.p0(i64 12, ptr nonnull %11) #22
  ret ptr %4

.lr.ph39.split:                                   ; preds = %.lr.ph39, %61
  %indvars.iv45 = phi i64 [ %indvars.iv.next46, %61 ], [ 0, %.lr.ph39 ]
  %.not42 = icmp eq i64 %indvars.iv45, 0
  br i1 %.not42, label %61, label %59

59:                                               ; preds = %.lr.ph39.split
  call void @llvm.lifetime.start.p0(i64 2, ptr nonnull %8)
  store i16 %1, ptr %8, align 2, !tbaa !24
  %60 = call noundef nonnull align 8 dereferenceable(64) ptr @_ZN6icu_7713UnicodeString8doAppendEPKDsii(ptr noundef nonnull align 8 dereferenceable(64) %4, ptr noundef nonnull %8, i32 noundef 0, i32 noundef 1)
  call void @llvm.lifetime.end.p0(i64 2, ptr nonnull %8)
  br label %61

61:                                               ; preds = %59, %.lr.ph39.split
  %62 = getelementptr inbounds nuw [3 x i32], ptr %11, i64 0, i64 %indvars.iv45
  %63 = load i32, ptr %62, align 4, !tbaa !12
  %64 = sdiv i32 %63, 10
  %65 = trunc i32 %64 to i16
  %66 = add i16 %65, 48
  call void @llvm.lifetime.start.p0(i64 2, ptr nonnull %7)
  store i16 %66, ptr %7, align 2, !tbaa !24
  %67 = call noundef nonnull align 8 dereferenceable(64) ptr @_ZN6icu_7713UnicodeString8doAppendEPKDsii(ptr noundef nonnull align 8 dereferenceable(64) %4, ptr noundef nonnull %7, i32 noundef 0, i32 noundef 1)
  call void @llvm.lifetime.end.p0(i64 2, ptr nonnull %7)
  %68 = srem i32 %63, 10
  %69 = trunc nsw i32 %68 to i16
  %70 = add nsw i16 %69, 48
  call void @llvm.lifetime.start.p0(i64 2, ptr nonnull %6)
  store i16 %70, ptr %6, align 2, !tbaa !24
  %71 = call noundef nonnull align 8 dereferenceable(64) ptr @_ZN6icu_7713UnicodeString8doAppendEPKDsii(ptr noundef nonnull align 8 dereferenceable(64) %4, ptr noundef nonnull %6, i32 noundef 0, i32 noundef 1)
  call void @llvm.lifetime.end.p0(i64 2, ptr nonnull %6)
  %indvars.iv.next46 = add nuw nsw i64 %indvars.iv45, 1
  %exitcond.not = icmp eq i64 %indvars.iv.next46, %wide.trip.count51
  br i1 %exitcond.not, label %._crit_edge40, label %.lr.ph39.split, !llvm.loop !104
}